target datalayout = "e-m:e-p270:32:32-p271:32:32-p272:64:64-i64:64-i128:128-f80:128-n8:16:32:64-S128"
target triple = "x86_64-pc-linux-gnu"

%struct.SDL_AtomicInt = type { i32 }
%struct.SDL_Window = type { i32, ptr, ptr, i32, i32, i32, i32, i32, i32, i32, i32, float, float, i32, i32, i64, i64, float, i8, i8, i32, i32, %struct.SDL_Rect, %struct.SDL_Rect, %struct.SDL_Rect, i8, i8, i8, %struct.SDL_DisplayMode, %struct.SDL_DisplayMode, %struct.SDL_HDROutputProperties, float, ptr, i8, i8, i8, i8, i8, i8, i8, i8, i8, i32, i32, i32, i32, %struct.SDL_Rect, i32, i8, %struct.SDL_Rect, i32, %struct.SDL_Rect, ptr, ptr, i32, float, i32, i32, ptr, ptr, ptr, ptr, ptr, ptr, ptr, ptr, ptr }
%struct.SDL_DisplayMode = type { i32, i32, i32, i32, float, float, i32, i32, ptr }
%struct.SDL_HDROutputProperties = type { float, float }
%struct.SDL_Rect = type { i32, i32, i32, i32 }
%struct.SDL_VideoDevice = type { ptr, ptr, ptr, ptr, ptr, ptr, ptr, ptr, ptr, ptr, ptr, ptr, ptr, ptr, ptr, ptr, ptr, ptr, ptr, ptr, ptr, ptr, ptr, ptr, ptr, ptr, ptr, ptr, ptr, ptr, ptr, ptr, ptr, ptr, ptr, ptr, ptr, ptr, ptr, ptr, ptr, ptr, ptr, ptr, ptr, ptr, ptr, ptr, ptr, ptr, ptr, ptr, ptr, ptr, ptr, ptr, ptr, ptr, ptr, ptr, ptr, ptr, ptr, ptr, ptr, ptr, ptr, ptr, ptr, ptr, ptr, ptr, ptr, ptr, ptr, ptr, ptr, ptr, ptr, ptr, ptr, ptr, ptr, ptr, ptr, ptr, ptr, ptr, ptr, ptr, ptr, ptr, ptr, ptr, ptr, ptr, ptr, i64, i8, i8, i8, ptr, i32, ptr, %struct.SDL_Rect, ptr, ptr, i32, ptr, ptr, ptr, ptr, i64, ptr, i8, i32, i32, %struct.anon, ptr, ptr, ptr, ptr, ptr, ptr, %struct.SDL_AtomicInt, %struct.SDL_AtomicInt, i8, %struct.anon.0, ptr, ptr, ptr, ptr, ptr }
%struct.anon = type { i32, i32, i32, i32, i32, i32, i32, i32, i32, i32, i32, i32, i32, i32, i32, i32, i32, i32, i32, i32, i32, i32, i32, i32, i32, i32, i32, i32, i32, [256 x i8], ptr }
%struct.anon.0 = type { ptr, ptr, i32, [256 x i8], ptr }

@.str.1 = private unnamed_addr constant [41 x i8] c"Video subsystem has not been initialized\00", align 1
@_this = internal global ptr null, align 8
@.str.20 = private unnamed_addr constant [15 x i8] c"Invalid window\00", align 1

; Function Attrs: nounwind uwtable
define hidden zeroext i1 @SDL_UninitializedVideo() #0 {
  %1 = call zeroext i1 (ptr, ...) @SDL_SetError_REAL(ptr noundef @.str.1)
  ret i1 %1
}

; Function Attrs: nounwind uwtable
define hidden zeroext i1 @SDL_HideWindow_REAL(ptr noundef %0) #0 {
  %2 = alloca i1, align 1
  %3 = alloca ptr, align 8
  %4 = alloca ptr, align 8
  %5 = alloca i32, align 4
  %6 = alloca i64, align 8
  store ptr %0, ptr %3, align 8
  call void @llvm.lifetime.start.p0(i64 8, ptr %4) #10
  %7 = load ptr, ptr @_this, align 8
  %8 = icmp ne ptr %7, null
  br i1 %8, label %11, label %9

9:                                                ; preds = %1
  %10 = call zeroext i1 @SDL_UninitializedVideo()
  store i1 false, ptr %2, align 1
  store i32 1, ptr %5, align 4
  br label %74

11:                                               ; preds = %1
  %12 = load ptr, ptr %3, align 8
  %13 = call zeroext i1 @SDL_ObjectValid(ptr noundef %12, i32 noundef 1)
  br i1 %13, label %16, label %14

14:                                               ; preds = %11
  %15 = call zeroext i1 (ptr, ...) @SDL_SetError_REAL(ptr noundef @.str.20)
  store i1 false, ptr %2, align 1
  store i32 1, ptr %5, align 4
  br label %74

16:                                               ; preds = %11
  %17 = load ptr, ptr %3, align 8
  %18 = getelementptr inbounds nuw %struct.SDL_Window, ptr %17, i32 0, i32 15
  %19 = load i64, ptr %18, align 8
  %20 = and i64 %19, 8
  %21 = icmp ne i64 %20, 0
  br i1 %21, label %22, label %25

22:                                               ; preds = %16
  %23 = load ptr, ptr %3, align 8
  %24 = getelementptr inbounds nuw %struct.SDL_Window, ptr %23, i32 0, i32 35
  store i8 0, ptr %24, align 2
  store i1 true, ptr %2, align 1
  store i32 1, ptr %5, align 4
  br label %74

25:                                               ; preds = %16
  %26 = load ptr, ptr %3, align 8
  %27 = getelementptr inbounds nuw %struct.SDL_Window, ptr %26, i32 0, i32 64
  %28 = load ptr, ptr %27, align 8
  store ptr %28, ptr %4, align 8
  br label %29

29:                                               ; preds = %44, %25
  %30 = load ptr, ptr %4, align 8
  %31 = icmp ne ptr %30, null
  br i1 %31, label %32, label %48

32:                                               ; preds = %29
  %33 = load ptr, ptr %4, align 8
  %34 = getelementptr inbounds nuw %struct.SDL_Window, ptr %33, i32 0, i32 15
  %35 = load i64, ptr %34, align 8
  %36 = and i64 %35, 8
  %37 = icmp ne i64 %36, 0
  br i1 %37, label %38, label %39

38:                                               ; preds = %32
  br label %48

39:                                               ; preds = %32
  %40 = load ptr, ptr %4, align 8
  %41 = call zeroext i1 @SDL_HideWindow_REAL(ptr noundef %40)
  %42 = load ptr, ptr %4, align 8
  %43 = getelementptr inbounds nuw %struct.SDL_Window, ptr %42, i32 0, i32 35
  store i8 1, ptr %43, align 2
  br label %44

44:                                               ; preds = %39
  %45 = load ptr, ptr %4, align 8
  %46 = getelementptr inbounds nuw %struct.SDL_Window, ptr %45, i32 0, i32 66
  %47 = load ptr, ptr %46, align 8
  store ptr %47, ptr %4, align 8
  br label %29, !llvm.loop !39

48:                                               ; preds = %38, %29
  call void @llvm.lifetime.start.p0(i64 8, ptr %6) #10
  store i64 1049025, ptr %6, align 8
  %49 = load ptr, ptr %3, align 8
  %50 = getelementptr inbounds nuw %struct.SDL_Window, ptr %49, i32 0, i32 15
  %51 = load i64, ptr %50, align 8
  %52 = and i64 %51, 1049025
  %53 = load ptr, ptr %3, align 8
  %54 = getelementptr inbounds nuw %struct.SDL_Window, ptr %53, i32 0, i32 16
  store i64 %52, ptr %54, align 8
  %55 = load ptr, ptr %3, align 8
  %56 = getelementptr inbounds nuw %struct.SDL_Window, ptr %55, i32 0, i32 34
  store i8 1, ptr %56, align 1
  %57 = load ptr, ptr @_this, align 8
  %58 = getelementptr inbounds nuw %struct.SDL_VideoDevice, ptr %57, i32 0, i32 24
  %59 = load ptr, ptr %58, align 8
  %60 = icmp ne ptr %59, null
  br i1 %60, label %61, label %67

61:                                               ; preds = %48
  %62 = load ptr, ptr @_this, align 8
  %63 = getelementptr inbounds nuw %struct.SDL_VideoDevice, ptr %62, i32 0, i32 24
  %64 = load ptr, ptr %63, align 8
  %65 = load ptr, ptr @_this, align 8
  %66 = load ptr, ptr %3, align 8
  call void %64(ptr noundef %65, ptr noundef %66)
  br label %69

67:                                               ; preds = %48
  call void @SDL_SetMouseFocus(ptr noundef null)
  %68 = call zeroext i1 @SDL_SetKeyboardFocus(ptr noundef null)
  br label %69

69:                                               ; preds = %67, %61
  %70 = load ptr, ptr %3, align 8
  %71 = getelementptr inbounds nuw %struct.SDL_Window, ptr %70, i32 0, i32 34
  store i8 0, ptr %71, align 1
  %72 = load ptr, ptr %3, align 8
  %73 = call zeroext i1 @SDL_SendWindowEvent(ptr noundef %72, i32 noundef 515, i32 noundef 0, i32 noundef 0)
  store i1 true, ptr %2, align 1
  store i32 1, ptr %5, align 4
  call void @llvm.lifetime.end.p0(i64 8, ptr %6) #10
  br label %74

74:                                               ; preds = %69, %22, %14, %9
  call void @llvm.lifetime.end.p0(i64 8, ptr %4) #10
  %75 = load i1, ptr %2, align 1
  ret i1 %75
}