; Function Attrs: nounwind uwtable
define hidden noundef zeroext i1 @SDL_HideWindow_REAL(ptr noundef %0) local_unnamed_addr #0 {
  %2 = load ptr, ptr @_this, align 8
  %.not = icmp eq ptr %2, null
  br i1 %.not, label %3, label %5

3:                                                ; preds = %1
  %4 = tail call zeroext i1 (ptr, ...) @SDL_SetError_REAL(ptr noundef nonnull @.str.1) #19
  br label %36

5:                                                ; preds = %1
  %6 = tail call zeroext i1 @SDL_ObjectValid(ptr noundef %0, i32 noundef 1) #19
  br i1 %6, label %9, label %7

7:                                                ; preds = %5
  %8 = tail call zeroext i1 (ptr, ...) @SDL_SetError_REAL(ptr noundef nonnull @.str.20) #19
  br label %36

9:                                                ; preds = %5
  %10 = getelementptr inbounds nuw i8, ptr %0, i64 72
  %11 = load i64, ptr %10, align 8
  %12 = and i64 %11, 8
  %.not18 = icmp eq i64 %12, 0
  br i1 %.not18, label %15, label %13

13:                                               ; preds = %9
  %14 = getelementptr inbounds nuw i8, ptr %0, i64 266
  store i8 0, ptr %14, align 2
  br label %36

15:                                               ; preds = %9
  %16 = getelementptr inbounds nuw i8, ptr %0, i64 432
  %.01622 = load ptr, ptr %16, align 8
  %.not1923 = icmp eq ptr %.01622, null
  br i1 %.not1923, label %._crit_edge, label %.lr.ph

.lr.ph:                                           ; preds = %15, %20
  %.01624 = phi ptr [ %.016, %20 ], [ %.01622, %15 ]
  %17 = getelementptr inbounds nuw i8, ptr %.01624, i64 72
  %18 = load i64, ptr %17, align 8
  %19 = and i64 %18, 8
  %.not20 = icmp eq i64 %19, 0
  br i1 %.not20, label %20, label %._crit_edge.loopexit

20:                                               ; preds = %.lr.ph
  %21 = tail call zeroext i1 @SDL_HideWindow_REAL(ptr noundef nonnull %.01624)
  %22 = getelementptr inbounds nuw i8, ptr %.01624, i64 266
  store i8 1, ptr %22, align 2
  %23 = getelementptr inbounds nuw i8, ptr %.01624, i64 448
  %.016 = load ptr, ptr %23, align 8
  %.not19 = icmp eq ptr %.016, null
  br i1 %.not19, label %._crit_edge.loopexit, label %.lr.ph, !llvm.loop !38

._crit_edge.loopexit:                             ; preds = %.lr.ph, %20
  %.pre = load i64, ptr %10, align 8
  br label %._crit_edge

._crit_edge:                                      ; preds = %._crit_edge.loopexit, %15
  %24 = phi i64 [ %.pre, %._crit_edge.loopexit ], [ %11, %15 ]
  %25 = and i64 %24, 1049025
  %26 = getelementptr inbounds nuw i8, ptr %0, i64 80
  store i64 %25, ptr %26, align 8
  %27 = getelementptr inbounds nuw i8, ptr %0, i64 265
  store i8 1, ptr %27, align 1
  %28 = load ptr, ptr @_this, align 8
  %29 = getelementptr inbounds nuw i8, ptr %28, i64 192
  %30 = load ptr, ptr %29, align 8
  %.not21 = icmp eq ptr %30, null
  br i1 %.not21, label %32, label %31

31:                                               ; preds = %._crit_edge
  tail call void %30(ptr noundef nonnull %28, ptr noundef nonnull %0) #19
  br label %34

32:                                               ; preds = %._crit_edge
  tail call void @SDL_SetMouseFocus(ptr noundef null) #19
  %33 = tail call zeroext i1 @SDL_SetKeyboardFocus(ptr noundef null) #19
  br label %34

34:                                               ; preds = %32, %31
  store i8 0, ptr %27, align 1
  %35 = tail call zeroext i1 @SDL_SendWindowEvent(ptr noundef nonnull %0, i32 noundef 515, i32 noundef 0, i32 noundef 0) #19
  br label %36

36:                                               ; preds = %34, %13, %7, %3
  %.0 = phi i1 [ true, %13 ], [ true, %34 ], [ false, %7 ], [ false, %3 ]
  ret i1 %.0
}